; Function Attrs: mustprogress uwtable
define hidden noundef zeroext i1 @_ZN7datalog25mk_separate_negated_tails16has_private_varsERKNS_4ruleEj(ptr noundef nonnull align 8 dereferenceable(96) %0, ptr noundef nonnull readonly align 8 captures(none) dereferenceable(80) %1, i32 noundef %2) local_unnamed_addr #3 align 2 {
  tail call void @_ZN7datalog25mk_separate_negated_tails16get_private_varsERKNS_4ruleEj(ptr noundef nonnull align 8 dereferenceable(96) %0, ptr noundef nonnull align 8 dereferenceable(80) %1, i32 noundef %2)
  %4 = getelementptr inbounds nuw i8, ptr %0, i64 48
  %5 = load ptr, ptr %4, align 8, !tbaa !214
  %6 = icmp eq ptr %5, null
  br i1 %6, label %_ZNK6vectorIP4exprLb0EjE5emptyEv.exit, label %7

7:                                                ; preds = %3
  %8 = getelementptr inbounds i8, ptr %5, i64 -4
  %9 = load i32, ptr %8, align 4, !tbaa !221
  %10 = icmp ne i32 %9, 0
  br label %_ZNK6vectorIP4exprLb0EjE5emptyEv.exit

_ZNK6vectorIP4exprLb0EjE5emptyEv.exit:            ; preds = %3, %7
  %11 = phi i1 [ false, %3 ], [ %10, %7 ]
  ret i1 %11
}